-----BEGIN RSA PRIVATE KEY-----
MIIEowIBAAKCAQEAyMT7uzlbRwqqIx4SJ//jSAlNrmJ00qp2FcYy8vGwdOctwK0M
Lr6OghCzQ7D7nzEamgWhYBiis/caM173CxK84enZSxmPseLkE5kmPchHTk7GjIuy
eIs6A40jjNjFXhmBNMcW5nrXvthz2R4rdYJ9FDYSgggKv0IMXyKYEodb92cY5NhY
b003u8jKEQaB11VyQG/mosIADvpfwP6uNrTxQamMX7Ovw09u/tghXSBwjONdnah5
ai6Wh6ZL6qRkB2mYFbMh650ihmuOmJZyDI/N0/glE4ZbsLoivsbEV3ACGyeGsvBh
qhGPZCdyi9YGmKYhcjFwJs5yqkKJOapFIgHjAwIDAQABAoIBADZALDmKJSUMN68n
mAZg+dxkTy5ZAnJOh3wYw3msX18nfNB8sjcLXNy+gIJBF60LisGl1dZuscBpfBX3
ik/er1VoaEQH0zFhOvokvxWgwcviM3qU4RP7oyCEid+sT6C+yZAmYATFmvjB6oP3
yAyHxx6oAdZLMARAZ7FpWqhfFTXDlfqtkFocgjMxHuysnaIVptPcJ/oWe6Cwydzy
p7bnph0K/lPUiKxMwijbzDI1QjMdFFk/Gz4SYIkTx4AH6fs1E6j6yGAu0P9SqNb8
QN20ylj02I+F75nvZkWXNSHssOCyO0Mr44aCMG7xyVB7t9Zdwb3lXmmgK3r2v3jN
ItKQemECgYEA+ZoKfAr54fdazE89HQX6tZQKCl8/Qbqfn9HoU/1w7kIcWCqRxRF3
DS75Ww0Ct3l5s6GfzhtDIWFidEe3ldUKQwtbQ4tJgFKHmWwdYnDwGWqJxzpQLcEe
1UMLUgVroxgNJjW0iPtW9KBoRvPwUC/tZqYJKfAaD+U4zIT77pehGXECgYEAzep9
rGclfaQds4sQLheMXY98fH1bT9NuNsBBz9Q6WtnzPjL7Bec11T+Dkkk2zE+wnxgv
+3MJQcfvf4QOPekQx9WHgqAAlOpqe3IMRI+AEwtDLeSRGvxxiVhwONATRy7jcerO
uRcxCvSEk6D18SC49Zv1rI/Nc2vE9sghQO7qKbMCgYEArU4HeZklZ4AXy0Q5aq18
Jhdj4U/A3CJ4Mr/MUITopIXCqHTmQa6eusii2lVuTXZKyi6uhqznL4Yulg41qhMB
zQtVktBjeHXVMPGgdXl1PDB8+ZfDlAFDJ1AlzA13bwaEGsOvVm0tMy0tOhamBQdC
DsO6GSRc9Cx0A41SX5dohAECgYBR36y8gf6sKDcPDnoOeZp8EPNEZGuMH9swtdz1
D8NsIEDROGALBtWmxqw/3BCHyB/IAkwBxMmneCHIJ++puiPL8SECVTAmBdb04nHy
SMR5zf6WHs17V2ilXZ6xWDpyETiqMNylR41ed77HHDbt+z7PmYVjaYIdJHqaTRS7
xsMgdQKBgE5yVbpLmqhERB8Lpefkh1HuyaRP6M1+65BaAJbInaehcWrTgyr+1pkm
lgpe3bMg2ubVZVOKYDWtB9iPLJ80JB3iVjeHcSjW0+mMxvNlhxu3TsRvHK+/jF28
p8FOde+iQAVLDsqDMA67MPJ18+d9T15XgaC7d7q4fwhIFILoVKQx
-----END RSA PRIVATE KEY-----
Certificate:
    Data:
        Version: 3 (0x2)
        Serial Number:
            fe:b2:d5:3a:9d:90:21:c8:ba:89:17:3a:15:9e:96:c4
    Signature Algorithm: sha256WithRSAEncryption
        Issuer: CN=mongoadmin
        Validity
            Not Before: Feb 20 12:26:53 2019 GMT
            Not After : Feb  4 12:26:53 2022 GMT
        Subject: CN=mongoclient
        Subject Public Key Info:
            Public Key Algorithm: rsaEncryption
                Public-Key: (2048 bit)
                Modulus:
                    00:c8:c4:fb:bb:39:5b:47:0a:aa:23:1e:12:27:ff:
                    e3:48:09:4d:ae:62:74:d2:aa:76:15:c6:32:f2:f1:
                    b0:74:e7:2d:c0:ad:0c:2e:be:8e:82:10:b3:43:b0:
                    fb:9f:31:1a:9a:05:a1:60:18:a2:b3:f7:1a:33:5e:
                    f7:0b:12:bc:e1:e9:d9:4b:19:8f:b1:e2:e4:13:99:
                    26:3d:c8:47:4e:4e:c6:8c:8b:b2:78:8b:3a:03:8d:
                    23:8c:d8:c5:5e:19:81:34:c7:16:e6:7a:d7:be:d8:
                    73:d9:1e:2b:75:82:7d:14:36:12:82:08:0a:bf:42:
                    0c:5f:22:98:12:87:5b:f7:67:18:e4:d8:58:6f:4d:
                    37:bb:c8:ca:11:06:81:d7:55:72:40:6f:e6:a2:c2:
                    00:0e:fa:5f:c0:fe:ae:36:b4:f1:41:a9:8c:5f:b3:
                    af:c3:4f:6e:fe:d8:21:5d:20:70:8c:e3:5d:9d:a8:
                    79:6a:2e:96:87:a6:4b:ea:a4:64:07:69:98:15:b3:
                    21:eb:9d:22:86:6b:8e:98:96:72:0c:8f:cd:d3:f8:
                    25:13:86:5b:b0:ba:22:be:c6:c4:57:70:02:1b:27:
                    86:b2:f0:61:aa:11:8f:64:27:72:8b:d6:06:98:a6:
                    21:72:31:70:26:ce:72:aa:42:89:39:aa:45:22:01:
                    e3:03
                Exponent: 65537 (0x10001)
        X509v3 extensions:
            X509v3 Basic Constraints: 
                CA:FALSE
            X509v3 Subject Key Identifier: 
                97:8F:23:DA:E8:19:9C:B0:8D:FF:9D:4D:AE:29:D3:1E:BC:22:D6:E7
            X509v3 Authority Key Identifier: 
                keyid:90:B8:CC:DD:80:20:1C:A7:63:8D:89:3C:B8:71:50:AD:3B:B6:A8:58
                DirName:/CN=mongoadmin
                serial:86:C8:79:EA:97:D9:FE:7C

            X509v3 Extended Key Usage: 
                TLS Web Client Authentication
            X509v3 Key Usage: 
                Digital Signature
    Signature Algorithm: sha256WithRSAEncryption
         26:9a:c4:a0:98:e5:96:0c:a7:c9:02:64:a8:5b:95:54:ff:6e:
         7f:09:e3:80:08:1e:ce:ad:87:bd:04:94:2f:38:16:19:04:1b:
         75:de:61:ca:70:62:8b:89:2e:9d:91:22:c3:4d:1e:be:85:03:
         1c:ab:00:d8:46:3b:23:3a:d4:bf:f3:91:b9:34:39:b2:2f:8d:
         06:15:18:f1:af:1c:0f:8e:90:ad:fb:21:6c:e4:77:29:d7:5e:
         54:a0:8a:ec:59:3d:c3:6a:72:e1:12:57:8f:b8:a6:e7:66:39:
         3a:62:17:a2:ff:ec:59:fa:87:13:8c:05:27:1b:c9:ae:38:00:
         06:02:64:50:c9:1f:05:2e:c9:df:3f:3e:3d:f4:33:fa:f7:e6:
         2b:4b:70:f1:47:02:34:d6:11:11:6f:79:0d:d3:05:ba:f4:9e:
         68:17:9f:7e:23:9b:c4:b1:9d:ff:fc:00:5b:1e:9b:79:26:b8:
         f2:1b:9b:e9:7f:47:2c:6f:9e:90:01:5f:c8:9e:bd:9d:79:30:
         fe:ea:00:f8:40:54:a3:ba:4e:7e:d5:a6:21:72:bd:82:65:a8:
         9f:11:3b:3c:ef:52:32:fe:1d:7e:28:3f:91:6e:9a:91:b7:73:
         62:d7:92:01:72:e0:bc:1c:60:ed:fd:24:df:83:95:83:0b:75:
         79:2c:59:40
-----BEGIN CERTIFICATE-----
MIIDTTCCAjWgAwIBAgIRAP6y1TqdkCHIuokXOhWelsQwDQYJKoZIhvcNAQELBQAw
FTETMBEGA1UEAwwKbW9uZ29hZG1pbjAeFw0xOTAyMjAxMjI2NTNaFw0yMjAyMDQx
MjI2NTNaMBYxFDASBgNVBAMMC21vbmdvY2xpZW50MIIBIjANBgkqhkiG9w0BAQEF
AAOCAQ8AMIIBCgKCAQEAyMT7uzlbRwqqIx4SJ//jSAlNrmJ00qp2FcYy8vGwdOct
wK0MLr6OghCzQ7D7nzEamgWhYBiis/caM173CxK84enZSxmPseLkE5kmPchHTk7G
jIuyeIs6A40jjNjFXhmBNMcW5nrXvthz2R4rdYJ9FDYSgggKv0IMXyKYEodb92cY
5NhYb003u8jKEQaB11VyQG/mosIADvpfwP6uNrTxQamMX7Ovw09u/tghXSBwjONd
nah5ai6Wh6ZL6qRkB2mYFbMh650ihmuOmJZyDI/N0/glE4ZbsLoivsbEV3ACGyeG
svBhqhGPZCdyi9YGmKYhcjFwJs5yqkKJOapFIgHjAwIDAQABo4GWMIGTMAkGA1Ud
EwQCMAAwHQYDVR0OBBYEFJePI9roGZywjf+dTa4p0x68ItbnMEUGA1UdIwQ+MDyA
FJC4zN2AIBynY42JPLhxUK07tqhYoRmkFzAVMRMwEQYDVQQDDAptb25nb2FkbWlu
ggkAhsh56pfZ/nwwEwYDVR0lBAwwCgYIKwYBBQUHAwIwCwYDVR0PBAQDAgeAMA0G
CSqGSIb3DQEBCwUAA4IBAQAmmsSgmOWWDKfJAmSoW5VU/25/CeOACB7OrYe9BJQv
OBYZBBt13mHKcGKLiS6dkSLDTR6+hQMcqwDYRjsjOtS/85G5NDmyL40GFRjxrxwP
jpCt+yFs5Hcp115UoIrsWT3DanLhElePuKbnZjk6Yhei/+xZ+ocTjAUnG8muOAAG
AmRQyR8FLsnfPz499DP69+YrS3DxRwI01hERb3kN0wW69J5oF59+I5vEsZ3//ABb
Hpt5JrjyG5vpf0csb56QAV/Inr2deTD+6gD4QFSjuk5+1aYhcr2CZaifETs871Iy
/h1+KD+RbpqRt3Ni15IBcuC8HGDt/STfg5WDC3V5LFlA
-----END CERTIFICATE-----
